target datalayout = "e-m:e-p270:32:32-p271:32:32-p272:64:64-i64:64-i128:128-f80:128-n8:16:32:64-S128"
target triple = "x86_64-pc-linux-gnu"

%struct.__va_list_tag = type { i32, i32, ptr, ptr }

@.str.12 = private unnamed_addr constant [4 x i8] c"\1B[m\00", align 1
@.str.23 = private unnamed_addr constant [3 x i8] c"%s\00", align 1
@.str.24 = private unnamed_addr constant [2 x i8] c"\0A\00", align 1

; Function Attrs: nounwind uwtable
define internal i32 @color_vfprintf(ptr noundef %0, ptr noundef %1, ptr noundef %2, ptr noundef %3, ptr noundef %4) #0 {
  %6 = alloca ptr, align 8
  %7 = alloca ptr, align 8
  %8 = alloca ptr, align 8
  %9 = alloca ptr, align 8
  %10 = alloca ptr, align 8
  %11 = alloca i32, align 4
  store ptr %0, ptr %6, align 8, !tbaa !38
  store ptr %1, ptr %7, align 8, !tbaa !4
  store ptr %2, ptr %8, align 8, !tbaa !4
  store ptr %3, ptr %9, align 8, !tbaa !44
  store ptr %4, ptr %10, align 8, !tbaa !4
  call void @llvm.lifetime.start.p0(i64 4, ptr %11) #11
  store i32 0, ptr %11, align 4, !tbaa !9
  %12 = load ptr, ptr %7, align 8, !tbaa !4
  %13 = load i8, ptr %12, align 1, !tbaa !11
  %14 = icmp ne i8 %13, 0
  br i1 %14, label %15, label %21

15:                                               ; preds = %5
  %16 = load ptr, ptr %6, align 8, !tbaa !38
  %17 = load ptr, ptr %7, align 8, !tbaa !4
  %18 = call i32 (ptr, ptr, ...) @fprintf(ptr noundef %16, ptr noundef @.str.23, ptr noundef %17) #11
  %19 = load i32, ptr %11, align 4, !tbaa !9
  %20 = add nsw i32 %19, %18
  store i32 %20, ptr %11, align 4, !tbaa !9
  br label %21

21:                                               ; preds = %15, %5
  %22 = load ptr, ptr %6, align 8, !tbaa !38
  %23 = load ptr, ptr %8, align 8, !tbaa !4
  %24 = load ptr, ptr %9, align 8, !tbaa !44
  %25 = call i32 @vfprintf(ptr noundef %22, ptr noundef %23, ptr noundef %24) #11
  %26 = load i32, ptr %11, align 4, !tbaa !9
  %27 = add nsw i32 %26, %25
  store i32 %27, ptr %11, align 4, !tbaa !9
  %28 = load ptr, ptr %7, align 8, !tbaa !4
  %29 = load i8, ptr %28, align 1, !tbaa !11
  %30 = icmp ne i8 %29, 0
  br i1 %30, label %31, label %36

31:                                               ; preds = %21
  %32 = load ptr, ptr %6, align 8, !tbaa !38
  %33 = call i32 (ptr, ptr, ...) @fprintf(ptr noundef %32, ptr noundef @.str.23, ptr noundef @.str.12) #11
  %34 = load i32, ptr %11, align 4, !tbaa !9
  %35 = add nsw i32 %34, %33
  store i32 %35, ptr %11, align 4, !tbaa !9
  br label %36

36:                                               ; preds = %31, %21
  %37 = load ptr, ptr %10, align 8, !tbaa !4
  %38 = icmp ne ptr %37, null
  br i1 %38, label %39, label %45

39:                                               ; preds = %36
  %40 = load ptr, ptr %6, align 8, !tbaa !38
  %41 = load ptr, ptr %10, align 8, !tbaa !4
  %42 = call i32 (ptr, ptr, ...) @fprintf(ptr noundef %40, ptr noundef @.str.23, ptr noundef %41) #11
  %43 = load i32, ptr %11, align 4, !tbaa !9
  %44 = add nsw i32 %43, %42
  store i32 %44, ptr %11, align 4, !tbaa !9
  br label %45

45:                                               ; preds = %39, %36
  %46 = load i32, ptr %11, align 4, !tbaa !9
  call void @llvm.lifetime.end.p0(i64 4, ptr %11) #11
  ret i32 %46
}

; Function Attrs: nounwind uwtable
define dso_local i32 @color_fprintf_ln(ptr noundef %0, ptr noundef %1, ptr noundef %2, ...) #0 {
  %4 = alloca ptr, align 8
  %5 = alloca ptr, align 8
  %6 = alloca ptr, align 8
  %7 = alloca [1 x %struct.__va_list_tag], align 16
  %8 = alloca i32, align 4
  store ptr %0, ptr %4, align 8, !tbaa !38
  store ptr %1, ptr %5, align 8, !tbaa !4
  store ptr %2, ptr %6, align 8, !tbaa !4
  call void @llvm.lifetime.start.p0(i64 24, ptr %7) #11
  call void @llvm.lifetime.start.p0(i64 4, ptr %8) #11
  %9 = getelementptr inbounds [1 x %struct.__va_list_tag], ptr %7, i64 0, i64 0
  call void @llvm.va_start.p0(ptr %9)
  %10 = load ptr, ptr %4, align 8, !tbaa !38
  %11 = load ptr, ptr %5, align 8, !tbaa !4
  %12 = load ptr, ptr %6, align 8, !tbaa !4
  %13 = getelementptr inbounds [1 x %struct.__va_list_tag], ptr %7, i64 0, i64 0
  %14 = call i32 @color_vfprintf(ptr noundef %10, ptr noundef %11, ptr noundef %12, ptr noundef %13, ptr noundef @.str.24)
  store i32 %14, ptr %8, align 4, !tbaa !9
  %15 = getelementptr inbounds [1 x %struct.__va_list_tag], ptr %7, i64 0, i64 0
  call void @llvm.va_end.p0(ptr %15)
  %16 = load i32, ptr %8, align 4, !tbaa !9
  call void @llvm.lifetime.end.p0(i64 4, ptr %8) #11
  call void @llvm.lifetime.end.p0(i64 24, ptr %7) #11
  ret i32 %16
}