; Function Attrs: nofree nounwind uwtable
define dso_local i32 @color_fprintf_ln(ptr noundef captures(none) %0, ptr noundef %1, ptr noundef readonly captures(none) %2, ...) local_unnamed_addr #6 {
  %4 = alloca [1 x %struct.__va_list_tag], align 16
  call void @llvm.lifetime.start.p0(i64 24, ptr nonnull %4) #15
  call void @llvm.va_start.p0(ptr nonnull %4)
  %5 = load i8, ptr %1, align 1, !tbaa !4
  %.not.i = icmp eq i8 %5, 0
  br i1 %.not.i, label %8, label %6

6:                                                ; preds = %3
  %7 = call i32 (ptr, ptr, ...) @fprintf(ptr noundef %0, ptr noundef nonnull @.str.23, ptr noundef nonnull %1) #15
  br label %8

8:                                                ; preds = %6, %3
  %.0.i = phi i32 [ %7, %6 ], [ 0, %3 ]
  %9 = call i32 @vfprintf(ptr noundef %0, ptr noundef readonly %2, ptr noundef nonnull %4) #15
  %10 = add nsw i32 %9, %.0.i
  %11 = load i8, ptr %1, align 1, !tbaa !4
  %.not16.i = icmp eq i8 %11, 0
  br i1 %.not16.i, label %color_vfprintf.exit, label %12

12:                                               ; preds = %8
  %13 = call i32 (ptr, ptr, ...) @fprintf(ptr noundef %0, ptr noundef nonnull @.str.23, ptr noundef nonnull @.str.12) #15
  %14 = add nsw i32 %13, %10
  br label %color_vfprintf.exit

color_vfprintf.exit:                              ; preds = %8, %12
  %.1.i = phi i32 [ %14, %12 ], [ %10, %8 ]
  %15 = call i32 (ptr, ptr, ...) @fprintf(ptr noundef %0, ptr noundef nonnull @.str.23, ptr noundef nonnull @.str.24) #15
  %16 = add nsw i32 %15, %.1.i
  call void @llvm.va_end.p0(ptr nonnull %4)
  call void @llvm.lifetime.end.p0(i64 24, ptr nonnull %4) #15
  ret i32 %16
}